; ModuleID = '11/872.c'
source_filename = "11/872.c"
target datalayout = "e-m:e-p270:32:32-p271:32:32-p272:64:64-i64:64-f80:128-n8:16:32:64-S128"
target triple = "x86_64-pc-linux-gnu"

@__const.main.a = private unnamed_addr constant [12 x i32] [i32 31, i32 29, i32 31, i32 30, i32 31, i32 30, i32 31, i32 31, i32 30, i32 31, i32 30, i32 31], align 16
@__const.main.b = private unnamed_addr constant [12 x i32] [i32 31, i32 28, i32 31, i32 30, i32 31, i32 30, i32 31, i32 31, i32 30, i32 31, i32 30, i32 31], align 16
@.str = private unnamed_addr constant [3 x i8] c"%d\00", align 1

; Function Attrs: noinline nounwind uwtable
define dso_local i32 @main() #0 {
  %1 = alloca i32, align 4
  %2 = alloca i32, align 4
  %3 = alloca i32, align 4
  %4 = alloca i32, align 4
  %5 = alloca i32, align 4
  %6 = alloca i32, align 4
  %7 = alloca [12 x i32], align 16
  %8 = alloca [12 x i32], align 16
  store i32 0, i32* %1, align 4
  store i32 0, i32* %5, align 4
  %9 = bitcast [12 x i32]* %7 to i8*
  call void @llvm.memcpy.p0i8.p0i8.i64(i8* align 16 %9, i8* align 16 bitcast ([12 x i32]* @__const.main.a to i8*), i64 48, i1 false)
  %10 = bitcast [12 x i32]* %8 to i8*
  call void @llvm.memcpy.p0i8.p0i8.i64(i8* align 16 %10, i8* align 16 bitcast ([12 x i32]* @__const.main.b to i8*), i64 48, i1 false)
  %11 = call i32 (i8*, ...) @__isoc99_scanf(i8* getelementptr inbounds ([3 x i8], [3 x i8]* @.str, i64 0, i64 0), i32* %2)
  %12 = call i32 (i8*, ...) @__isoc99_scanf(i8* getelementptr inbounds ([3 x i8], [3 x i8]* @.str, i64 0, i64 0), i32* %3)
  %13 = call i32 (i8*, ...) @__isoc99_scanf(i8* getelementptr inbounds ([3 x i8], [3 x i8]* @.str, i64 0, i64 0), i32* %4)
  %14 = load i32, i32* %2, align 4
  %15 = srem i32 %14, 400
  %16 = icmp eq i32 %15, 0
  br i1 %16, label %25, label %17

17:                                               ; preds = %0
  %18 = load i32, i32* %2, align 4
  %19 = srem i32 %18, 100
  %20 = icmp ne i32 %19, 0
  br i1 %20, label %21, label %42

21:                                               ; preds = %17
  %22 = load i32, i32* %2, align 4
  %23 = srem i32 %22, 4
  %24 = icmp eq i32 %23, 0
  br i1 %24, label %25, label %42

25:                                               ; preds = %21, %0
  store i32 0, i32* %6, align 4
  br label %26

26:                                               ; preds = %38, %25
  %27 = load i32, i32* %6, align 4
  %28 = load i32, i32* %3, align 4
  %29 = sub nsw i32 %28, 1
  %30 = icmp slt i32 %27, %29
  br i1 %30, label %31, label %41

31:                                               ; preds = %26
  %32 = load i32, i32* %5, align 4
  %33 = load i32, i32* %6, align 4
  %34 = sext i32 %33 to i64
  %35 = getelementptr inbounds [12 x i32], [12 x i32]* %7, i64 0, i64 %34
  %36 = load i32, i32* %35, align 4
  %37 = add nsw i32 %32, %36
  store i32 %37, i32* %5, align 4
  br label %38

38:                                               ; preds = %31
  %39 = load i32, i32* %6, align 4
  %40 = add nsw i32 %39, 1
  store i32 %40, i32* %6, align 4
  br label %26

41:                                               ; preds = %26
  br label %59

42:                                               ; preds = %21, %17
  store i32 0, i32* %6, align 4
  br label %43

43:                                               ; preds = %55, %42
  %44 = load i32, i32* %6, align 4
  %45 = load i32, i32* %3, align 4
  %46 = sub nsw i32 %45, 1
  %47 = icmp slt i32 %44, %46
  br i1 %47, label %48, label %58

48:                                               ; preds = %43
  %49 = load i32, i32* %5, align 4
  %50 = load i32, i32* %6, align 4
  %51 = sext i32 %50 to i64
  %52 = getelementptr inbounds [12 x i32], [12 x i32]* %8, i64 0, i64 %51
  %53 = load i32, i32* %52, align 4
  %54 = add nsw i32 %49, %53
  store i32 %54, i32* %5, align 4
  br label %55

55:                                               ; preds = %48
  %56 = load i32, i32* %6, align 4
  %57 = add nsw i32 %56, 1
  store i32 %57, i32* %6, align 4
  br label %43

58:                                               ; preds = %43
  br label %59

59:                                               ; preds = %58, %41
  %60 = load i32, i32* %5, align 4
  %61 = load i32, i32* %4, align 4
  %62 = add nsw i32 %60, %61
  store i32 %62, i32* %5, align 4
  %63 = load i32, i32* %5, align 4
  %64 = call i32 (i8*, ...) @printf(i8* getelementptr inbounds ([3 x i8], [3 x i8]* @.str, i64 0, i64 0), i32 %63)
  %65 = load i32, i32* %1, align 4
  ret i32 %65
}

; Function Attrs: argmemonly nounwind willreturn
declare void @llvm.memcpy.p0i8.p0i8.i64(i8* noalias nocapture writeonly, i8* noalias nocapture readonly, i64, i1 immarg) #1

declare dso_local i32 @__isoc99_scanf(i8*, ...) #2

declare dso_local i32 @printf(i8*, ...) #2


!llvm.module.flags = !{!0}
!llvm.ident = !{!1}

!0 = !{i32 1, !"wchar_size", i32 4}
!1 = !{!"clang version 10.0.0-4ubuntu1 "}
